target datalayout = "e-m:e-p270:32:32-p271:32:32-p272:64:64-i64:64-i128:128-f80:128-n8:16:32:64-S128"
target triple = "x86_64-pc-linux-gnu"

%struct.lua_TValue = type { %union.Value, [1 x i32], i32 }
%union.Value = type { ptr }

; Function Attrs: mustprogress nounwind uwtable
define internal noundef i32 @_ZL9luauF_maxP9lua_StateP10lua_TValueS2_iS2_i(ptr noundef %0, ptr noundef %1, ptr noundef %2, i32 noundef %3, ptr noundef %4, i32 noundef %5) #0 {
  %7 = alloca i32, align 4
  %8 = alloca ptr, align 8
  %9 = alloca ptr, align 8
  %10 = alloca ptr, align 8
  %11 = alloca i32, align 4
  %12 = alloca ptr, align 8
  %13 = alloca i32, align 4
  %14 = alloca double, align 8
  %15 = alloca double, align 8
  %16 = alloca double, align 8
  %17 = alloca i32, align 4
  %18 = alloca i32, align 4
  %19 = alloca double, align 8
  %20 = alloca ptr, align 8
  store ptr %0, ptr %8, align 8, !tbaa !4
  store ptr %1, ptr %9, align 8, !tbaa !9
  store ptr %2, ptr %10, align 8, !tbaa !9
  store i32 %3, ptr %11, align 4, !tbaa !11
  store ptr %4, ptr %12, align 8, !tbaa !9
  store i32 %5, ptr %13, align 4, !tbaa !11
  %21 = load i32, ptr %13, align 4, !tbaa !11
  %22 = icmp sge i32 %21, 2
  br i1 %22, label %23, label %97

23:                                               ; preds = %6
  %24 = load i32, ptr %11, align 4, !tbaa !11
  %25 = icmp sle i32 %24, 1
  br i1 %25, label %26, label %97

26:                                               ; preds = %23
  %27 = load ptr, ptr %10, align 8, !tbaa !9
  %28 = getelementptr inbounds nuw %struct.lua_TValue, ptr %27, i32 0, i32 2
  %29 = load i32, ptr %28, align 4, !tbaa !13
  %30 = icmp eq i32 %29, 3
  br i1 %30, label %31, label %97

31:                                               ; preds = %26
  %32 = load ptr, ptr %12, align 8, !tbaa !9
  %33 = getelementptr inbounds nuw %struct.lua_TValue, ptr %32, i32 0, i32 2
  %34 = load i32, ptr %33, align 4, !tbaa !13
  %35 = icmp eq i32 %34, 3
  br i1 %35, label %36, label %97

36:                                               ; preds = %31
  call void @llvm.lifetime.start.p0(i64 8, ptr %14) #17
  %37 = load ptr, ptr %10, align 8, !tbaa !9
  %38 = getelementptr inbounds nuw %struct.lua_TValue, ptr %37, i32 0, i32 0
  %39 = load double, ptr %38, align 8, !tbaa !15
  store double %39, ptr %14, align 8, !tbaa !16
  call void @llvm.lifetime.start.p0(i64 8, ptr %15) #17
  %40 = load ptr, ptr %12, align 8, !tbaa !9
  %41 = getelementptr inbounds nuw %struct.lua_TValue, ptr %40, i32 0, i32 0
  %42 = load double, ptr %41, align 8, !tbaa !15
  store double %42, ptr %15, align 8, !tbaa !16
  call void @llvm.lifetime.start.p0(i64 8, ptr %16) #17
  %43 = load double, ptr %15, align 8, !tbaa !16
  %44 = load double, ptr %14, align 8, !tbaa !16
  %45 = fcmp ogt double %43, %44
  br i1 %45, label %46, label %48

46:                                               ; preds = %36
  %47 = load double, ptr %15, align 8, !tbaa !16
  br label %50

48:                                               ; preds = %36
  %49 = load double, ptr %14, align 8, !tbaa !16
  br label %50

50:                                               ; preds = %48, %46
  %51 = phi double [ %47, %46 ], [ %49, %48 ]
  store double %51, ptr %16, align 8, !tbaa !16
  call void @llvm.lifetime.start.p0(i64 4, ptr %17) #17
  store i32 3, ptr %17, align 4, !tbaa !11
  br label %52

52:                                               ; preds = %84, %50
  %53 = load i32, ptr %17, align 4, !tbaa !11
  %54 = load i32, ptr %13, align 4, !tbaa !11
  %55 = icmp sle i32 %53, %54
  br i1 %55, label %57, label %56

56:                                               ; preds = %52
  store i32 2, ptr %18, align 4
  br label %87

57:                                               ; preds = %52
  %58 = load ptr, ptr %12, align 8, !tbaa !9
  %59 = load i32, ptr %17, align 4, !tbaa !11
  %60 = sub nsw i32 %59, 2
  %61 = sext i32 %60 to i64
  %62 = getelementptr inbounds %struct.lua_TValue, ptr %58, i64 %61
  %63 = getelementptr inbounds nuw %struct.lua_TValue, ptr %62, i32 0, i32 2
  %64 = load i32, ptr %63, align 4, !tbaa !13
  %65 = icmp eq i32 %64, 3
  br i1 %65, label %67, label %66

66:                                               ; preds = %57
  store i32 -1, ptr %7, align 4
  store i32 1, ptr %18, align 4
  br label %87

67:                                               ; preds = %57
  call void @llvm.lifetime.start.p0(i64 8, ptr %19) #17
  %68 = load ptr, ptr %12, align 8, !tbaa !9
  %69 = load i32, ptr %17, align 4, !tbaa !11
  %70 = sub nsw i32 %69, 2
  %71 = sext i32 %70 to i64
  %72 = getelementptr inbounds %struct.lua_TValue, ptr %68, i64 %71
  %73 = getelementptr inbounds nuw %struct.lua_TValue, ptr %72, i32 0, i32 0
  %74 = load double, ptr %73, align 8, !tbaa !15
  store double %74, ptr %19, align 8, !tbaa !16
  %75 = load double, ptr %19, align 8, !tbaa !16
  %76 = load double, ptr %16, align 8, !tbaa !16
  %77 = fcmp ogt double %75, %76
  br i1 %77, label %78, label %80

78:                                               ; preds = %67
  %79 = load double, ptr %19, align 8, !tbaa !16
  br label %82

80:                                               ; preds = %67
  %81 = load double, ptr %16, align 8, !tbaa !16
  br label %82

82:                                               ; preds = %80, %78
  %83 = phi double [ %79, %78 ], [ %81, %80 ]
  store double %83, ptr %16, align 8, !tbaa !16
  call void @llvm.lifetime.end.p0(i64 8, ptr %19) #17
  br label %84

84:                                               ; preds = %82
  %85 = load i32, ptr %17, align 4, !tbaa !11
  %86 = add nsw i32 %85, 1
  store i32 %86, ptr %17, align 4, !tbaa !11
  br label %52, !llvm.loop !20

87:                                               ; preds = %66, %56
  call void @llvm.lifetime.end.p0(i64 4, ptr %17) #17
  %88 = load i32, ptr %18, align 4
  switch i32 %88, label %96 [
    i32 2, label %89
  ]

89:                                               ; preds = %87
  call void @llvm.lifetime.start.p0(i64 8, ptr %20) #17
  %90 = load ptr, ptr %9, align 8, !tbaa !9
  store ptr %90, ptr %20, align 8, !tbaa !9
  %91 = load double, ptr %16, align 8, !tbaa !16
  %92 = load ptr, ptr %20, align 8, !tbaa !9
  %93 = getelementptr inbounds nuw %struct.lua_TValue, ptr %92, i32 0, i32 0
  store double %91, ptr %93, align 8, !tbaa !15
  %94 = load ptr, ptr %20, align 8, !tbaa !9
  %95 = getelementptr inbounds nuw %struct.lua_TValue, ptr %94, i32 0, i32 2
  store i32 3, ptr %95, align 4, !tbaa !13
  call void @llvm.lifetime.end.p0(i64 8, ptr %20) #17
  store i32 1, ptr %7, align 4
  store i32 1, ptr %18, align 4
  br label %96

96:                                               ; preds = %89, %87
  call void @llvm.lifetime.end.p0(i64 8, ptr %16) #17
  call void @llvm.lifetime.end.p0(i64 8, ptr %15) #17
  call void @llvm.lifetime.end.p0(i64 8, ptr %14) #17
  br label %98

97:                                               ; preds = %31, %26, %23, %6
  store i32 -1, ptr %7, align 4
  br label %98

98:                                               ; preds = %97, %96
  %99 = load i32, ptr %7, align 4
  ret i32 %99
}